; Function Attrs: mustprogress nofree norecurse nosync nounwind willreturn memory(argmem: read) uwtable
define dso_local range(i32 0, -2) i32 @_ZNK5clang13SourceManager17getPreviousFileIDENS_6FileIDE(ptr noundef nonnull readonly align 8 captures(none) dereferenceable(696) %0, i32 %1) local_unnamed_addr #9 align 2 {
  switch i32 %1, label %3 [
    i32 0, label %14
    i32 -1, label %14
  ]

3:                                                ; preds = %2
  %4 = icmp sgt i32 %1, 0
  br i1 %4, label %5, label %7

5:                                                ; preds = %3
  %6 = icmp eq i32 %1, 1
  br i1 %6, label %14, label %12

7:                                                ; preds = %3
  %8 = xor i32 %1, -1
  %9 = zext nneg i32 %8 to i64
  %10 = getelementptr inbounds nuw i8, ptr %0, i64 200
  %11 = load i64, ptr %10, align 8
  %.not = icmp ugt i64 %11, %9
  br i1 %.not, label %12, label %14

12:                                               ; preds = %7, %5
  %13 = add nsw i32 %1, -1
  br label %14

14:                                               ; preds = %2, %2, %7, %5, %12
  %.sroa.06.0 = phi i32 [ %13, %12 ], [ 0, %2 ], [ 0, %5 ], [ 0, %7 ], [ 0, %2 ]
  ret i32 %.sroa.06.0
}